target datalayout = "e-m:e-p270:32:32-p271:32:32-p272:64:64-i64:64-i128:128-f80:128-n8:16:32:64-S128"
target triple = "x86_64-unknown-linux-gnu"

%struct.cname = type { ptr, i8 }
%struct.parse = type { ptr, ptr, i32, ptr, i64, i64, i32, ptr, [10 x i64], [10 x i64] }

@nuls = internal global [10 x i8] zeroinitializer, align 1

; Function Attrs: nounwind uwtable
define internal signext i8 @p_b_coll_elem(ptr noundef %p, i32 noundef %endc) #0 {
entry:
  %retval = alloca i8, align 1
  %p.addr = alloca ptr, align 8
  %endc.addr = alloca i32, align 4
  %sp = alloca ptr, align 8
  %cp = alloca ptr, align 8
  %len = alloca i64, align 8
  store ptr %p, ptr %p.addr, align 8
  store i32 %endc, ptr %endc.addr, align 4
  %0 = load ptr, ptr %p.addr, align 8
  %next = getelementptr inbounds %struct.parse, ptr %0, i32 0, i32 0
  %1 = load ptr, ptr %next, align 8
  store ptr %1, ptr %sp, align 8
  br label %while.cond

while.cond:                                       ; preds = %while.body, %entry
  %2 = load ptr, ptr %p.addr, align 8
  %next1 = getelementptr inbounds %struct.parse, ptr %2, i32 0, i32 0
  %3 = load ptr, ptr %next1, align 8
  %4 = load ptr, ptr %p.addr, align 8
  %end = getelementptr inbounds %struct.parse, ptr %4, i32 0, i32 1
  %5 = load ptr, ptr %end, align 8
  %cmp = icmp ult ptr %3, %5
  br i1 %cmp, label %land.rhs, label %land.end18

land.rhs:                                         ; preds = %while.cond
  %6 = load ptr, ptr %p.addr, align 8
  %next2 = getelementptr inbounds %struct.parse, ptr %6, i32 0, i32 0
  %7 = load ptr, ptr %next2, align 8
  %8 = load ptr, ptr %p.addr, align 8
  %end3 = getelementptr inbounds %struct.parse, ptr %8, i32 0, i32 1
  %9 = load ptr, ptr %end3, align 8
  %cmp4 = icmp ult ptr %7, %9
  br i1 %cmp4, label %land.lhs.true, label %land.end

land.lhs.true:                                    ; preds = %land.rhs
  %10 = load ptr, ptr %p.addr, align 8
  %next5 = getelementptr inbounds %struct.parse, ptr %10, i32 0, i32 0
  %11 = load ptr, ptr %next5, align 8
  %add.ptr = getelementptr inbounds i8, ptr %11, i64 1
  %12 = load ptr, ptr %p.addr, align 8
  %end6 = getelementptr inbounds %struct.parse, ptr %12, i32 0, i32 1
  %13 = load ptr, ptr %end6, align 8
  %cmp7 = icmp ult ptr %add.ptr, %13
  br i1 %cmp7, label %land.lhs.true8, label %land.end

land.lhs.true8:                                   ; preds = %land.lhs.true
  %14 = load ptr, ptr %p.addr, align 8
  %next9 = getelementptr inbounds %struct.parse, ptr %14, i32 0, i32 0
  %15 = load ptr, ptr %next9, align 8
  %16 = load i8, ptr %15, align 1
  %conv = sext i8 %16 to i32
  %17 = load i32, ptr %endc.addr, align 4
  %cmp10 = icmp eq i32 %conv, %17
  br i1 %cmp10, label %land.rhs12, label %land.end

land.rhs12:                                       ; preds = %land.lhs.true8
  %18 = load ptr, ptr %p.addr, align 8
  %next13 = getelementptr inbounds %struct.parse, ptr %18, i32 0, i32 0
  %19 = load ptr, ptr %next13, align 8
  %add.ptr14 = getelementptr inbounds i8, ptr %19, i64 1
  %20 = load i8, ptr %add.ptr14, align 1
  %conv15 = sext i8 %20 to i32
  %cmp16 = icmp eq i32 %conv15, 93
  br label %land.end

land.end:                                         ; preds = %land.rhs12, %land.lhs.true8, %land.lhs.true, %land.rhs
  %21 = phi i1 [ false, %land.lhs.true8 ], [ false, %land.lhs.true ], [ false, %land.rhs ], [ %cmp16, %land.rhs12 ]
  %lnot = xor i1 %21, true
  br label %land.end18

land.end18:                                       ; preds = %land.end, %while.cond
  %22 = phi i1 [ false, %while.cond ], [ %lnot, %land.end ]
  br i1 %22, label %while.body, label %while.end

while.body:                                       ; preds = %land.end18
  %23 = load ptr, ptr %p.addr, align 8
  %next19 = getelementptr inbounds %struct.parse, ptr %23, i32 0, i32 0
  %24 = load ptr, ptr %next19, align 8
  %incdec.ptr = getelementptr inbounds i8, ptr %24, i32 1
  store ptr %incdec.ptr, ptr %next19, align 8
  br label %while.cond, !llvm.loop !33

while.end:                                        ; preds = %land.end18
  %25 = load ptr, ptr %p.addr, align 8
  %next20 = getelementptr inbounds %struct.parse, ptr %25, i32 0, i32 0
  %26 = load ptr, ptr %next20, align 8
  %27 = load ptr, ptr %p.addr, align 8
  %end21 = getelementptr inbounds %struct.parse, ptr %27, i32 0, i32 1
  %28 = load ptr, ptr %end21, align 8
  %cmp22 = icmp ult ptr %26, %28
  br i1 %cmp22, label %if.end, label %if.then

if.then:                                          ; preds = %while.end
  %29 = load ptr, ptr %p.addr, align 8
  %call = call i32 @seterr(ptr noundef %29, i32 noundef 7)
  store i8 0, ptr %retval, align 1
  br label %return

if.end:                                           ; preds = %while.end
  %30 = load ptr, ptr %p.addr, align 8
  %next24 = getelementptr inbounds %struct.parse, ptr %30, i32 0, i32 0
  %31 = load ptr, ptr %next24, align 8
  %32 = load ptr, ptr %sp, align 8
  %sub.ptr.lhs.cast = ptrtoint ptr %31 to i64
  %sub.ptr.rhs.cast = ptrtoint ptr %32 to i64
  %sub.ptr.sub = sub i64 %sub.ptr.lhs.cast, %sub.ptr.rhs.cast
  store i64 %sub.ptr.sub, ptr %len, align 8
  store ptr @cnames, ptr %cp, align 8
  br label %for.cond

for.cond:                                         ; preds = %for.inc, %if.end
  %33 = load ptr, ptr %cp, align 8
  %name = getelementptr inbounds %struct.cname, ptr %33, i32 0, i32 0
  %34 = load ptr, ptr %name, align 8
  %cmp25 = icmp ne ptr %34, null
  br i1 %cmp25, label %for.body, label %for.end

for.body:                                         ; preds = %for.cond
  %35 = load ptr, ptr %cp, align 8
  %name27 = getelementptr inbounds %struct.cname, ptr %35, i32 0, i32 0
  %36 = load ptr, ptr %name27, align 8
  %37 = load ptr, ptr %sp, align 8
  %38 = load i64, ptr %len, align 8
  %call28 = call i32 @strncmp(ptr noundef %36, ptr noundef %37, i64 noundef %38) #10
  %cmp29 = icmp eq i32 %call28, 0
  br i1 %cmp29, label %land.lhs.true31, label %if.end37

land.lhs.true31:                                  ; preds = %for.body
  %39 = load ptr, ptr %cp, align 8
  %name32 = getelementptr inbounds %struct.cname, ptr %39, i32 0, i32 0
  %40 = load ptr, ptr %name32, align 8
  %call33 = call i64 @strlen(ptr noundef %40) #10
  %41 = load i64, ptr %len, align 8
  %cmp34 = icmp eq i64 %call33, %41
  br i1 %cmp34, label %if.then36, label %if.end37

if.then36:                                        ; preds = %land.lhs.true31
  %42 = load ptr, ptr %cp, align 8
  %code = getelementptr inbounds %struct.cname, ptr %42, i32 0, i32 1
  %43 = load i8, ptr %code, align 8
  store i8 %43, ptr %retval, align 1
  br label %return

if.end37:                                         ; preds = %land.lhs.true31, %for.body
  br label %for.inc

for.inc:                                          ; preds = %if.end37
  %44 = load ptr, ptr %cp, align 8
  %incdec.ptr38 = getelementptr inbounds %struct.cname, ptr %44, i32 1
  store ptr %incdec.ptr38, ptr %cp, align 8
  br label %for.cond, !llvm.loop !34

for.end:                                          ; preds = %for.cond
  %45 = load i64, ptr %len, align 8
  %cmp39 = icmp eq i64 %45, 1
  br i1 %cmp39, label %if.then41, label %if.end42

if.then41:                                        ; preds = %for.end
  %46 = load ptr, ptr %sp, align 8
  %47 = load i8, ptr %46, align 1
  store i8 %47, ptr %retval, align 1
  br label %return

if.end42:                                         ; preds = %for.end
  %48 = load ptr, ptr %p.addr, align 8
  %call43 = call i32 @seterr(ptr noundef %48, i32 noundef 3)
  store i8 0, ptr %retval, align 1
  br label %return

return:                                           ; preds = %if.end42, %if.then41, %if.then36, %if.then
  %49 = load i8, ptr %retval, align 1
  ret i8 %49
}

; Function Attrs: nounwind uwtable
define internal i32 @seterr(ptr noundef %p, i32 noundef %e) #0 {
entry:
  %p.addr = alloca ptr, align 8
  %e.addr = alloca i32, align 4
  store ptr %p, ptr %p.addr, align 8
  store i32 %e, ptr %e.addr, align 4
  %0 = load ptr, ptr %p.addr, align 8
  %error = getelementptr inbounds %struct.parse, ptr %0, i32 0, i32 2
  %1 = load i32, ptr %error, align 8
  %cmp = icmp eq i32 %1, 0
  br i1 %cmp, label %if.then, label %if.end

if.then:                                          ; preds = %entry
  %2 = load i32, ptr %e.addr, align 4
  %3 = load ptr, ptr %p.addr, align 8
  %error1 = getelementptr inbounds %struct.parse, ptr %3, i32 0, i32 2
  store i32 %2, ptr %error1, align 8
  br label %if.end

if.end:                                           ; preds = %if.then, %entry
  %4 = load ptr, ptr %p.addr, align 8
  %next = getelementptr inbounds %struct.parse, ptr %4, i32 0, i32 0
  store ptr @nuls, ptr %next, align 8
  %5 = load ptr, ptr %p.addr, align 8
  %end = getelementptr inbounds %struct.parse, ptr %5, i32 0, i32 1
  store ptr @nuls, ptr %end, align 8
  ret i32 0
}

; Function Attrs: nounwind uwtable
define internal signext i8 @p_b_symbol(ptr noundef %p) #0 {
entry:
  %retval = alloca i8, align 1
  %p.addr = alloca ptr, align 8
  %value = alloca i8, align 1
  store ptr %p, ptr %p.addr, align 8
  %0 = load ptr, ptr %p.addr, align 8
  %next = getelementptr inbounds %struct.parse, ptr %0, i32 0, i32 0
  %1 = load ptr, ptr %next, align 8
  %2 = load ptr, ptr %p.addr, align 8
  %end = getelementptr inbounds %struct.parse, ptr %2, i32 0, i32 1
  %3 = load ptr, ptr %end, align 8
  %cmp = icmp ult ptr %1, %3
  br i1 %cmp, label %lor.end, label %lor.rhs

lor.rhs:                                          ; preds = %entry
  %4 = load ptr, ptr %p.addr, align 8
  %call = call i32 @seterr(ptr noundef %4, i32 noundef 7)
  br label %lor.end

lor.end:                                          ; preds = %lor.rhs, %entry
  %5 = load ptr, ptr %p.addr, align 8
  %next1 = getelementptr inbounds %struct.parse, ptr %5, i32 0, i32 0
  %6 = load ptr, ptr %next1, align 8
  %7 = load ptr, ptr %p.addr, align 8
  %end2 = getelementptr inbounds %struct.parse, ptr %7, i32 0, i32 1
  %8 = load ptr, ptr %end2, align 8
  %cmp3 = icmp ult ptr %6, %8
  br i1 %cmp3, label %land.lhs.true, label %cond.false

land.lhs.true:                                    ; preds = %lor.end
  %9 = load ptr, ptr %p.addr, align 8
  %next4 = getelementptr inbounds %struct.parse, ptr %9, i32 0, i32 0
  %10 = load ptr, ptr %next4, align 8
  %add.ptr = getelementptr inbounds i8, ptr %10, i64 1
  %11 = load ptr, ptr %p.addr, align 8
  %end5 = getelementptr inbounds %struct.parse, ptr %11, i32 0, i32 1
  %12 = load ptr, ptr %end5, align 8
  %cmp6 = icmp ult ptr %add.ptr, %12
  br i1 %cmp6, label %land.lhs.true7, label %cond.false

land.lhs.true7:                                   ; preds = %land.lhs.true
  %13 = load ptr, ptr %p.addr, align 8
  %next8 = getelementptr inbounds %struct.parse, ptr %13, i32 0, i32 0
  %14 = load ptr, ptr %next8, align 8
  %15 = load i8, ptr %14, align 1
  %conv = sext i8 %15 to i32
  %cmp9 = icmp eq i32 %conv, 91
  br i1 %cmp9, label %land.lhs.true11, label %cond.false

land.lhs.true11:                                  ; preds = %land.lhs.true7
  %16 = load ptr, ptr %p.addr, align 8
  %next12 = getelementptr inbounds %struct.parse, ptr %16, i32 0, i32 0
  %17 = load ptr, ptr %next12, align 8
  %add.ptr13 = getelementptr inbounds i8, ptr %17, i64 1
  %18 = load i8, ptr %add.ptr13, align 1
  %conv14 = sext i8 %18 to i32
  %cmp15 = icmp eq i32 %conv14, 46
  br i1 %cmp15, label %cond.true, label %cond.false

cond.true:                                        ; preds = %land.lhs.true11
  %19 = load ptr, ptr %p.addr, align 8
  %next17 = getelementptr inbounds %struct.parse, ptr %19, i32 0, i32 0
  %20 = load ptr, ptr %next17, align 8
  %add.ptr18 = getelementptr inbounds i8, ptr %20, i64 2
  store ptr %add.ptr18, ptr %next17, align 8
  br i1 true, label %if.end, label %if.then

cond.false:                                       ; preds = %land.lhs.true11, %land.lhs.true7, %land.lhs.true, %lor.end
  br i1 false, label %if.end, label %if.then

if.then:                                          ; preds = %cond.false, %cond.true
  %21 = load ptr, ptr %p.addr, align 8
  %next19 = getelementptr inbounds %struct.parse, ptr %21, i32 0, i32 0
  %22 = load ptr, ptr %next19, align 8
  %incdec.ptr = getelementptr inbounds i8, ptr %22, i32 1
  store ptr %incdec.ptr, ptr %next19, align 8
  %23 = load i8, ptr %22, align 1
  store i8 %23, ptr %retval, align 1
  br label %return

if.end:                                           ; preds = %cond.false, %cond.true
  %24 = load ptr, ptr %p.addr, align 8
  %call20 = call signext i8 @p_b_coll_elem(ptr noundef %24, i32 noundef 46)
  store i8 %call20, ptr %value, align 1
  %25 = load ptr, ptr %p.addr, align 8
  %next21 = getelementptr inbounds %struct.parse, ptr %25, i32 0, i32 0
  %26 = load ptr, ptr %next21, align 8
  %27 = load ptr, ptr %p.addr, align 8
  %end22 = getelementptr inbounds %struct.parse, ptr %27, i32 0, i32 1
  %28 = load ptr, ptr %end22, align 8
  %cmp23 = icmp ult ptr %26, %28
  br i1 %cmp23, label %land.lhs.true25, label %cond.false45

land.lhs.true25:                                  ; preds = %if.end
  %29 = load ptr, ptr %p.addr, align 8
  %next26 = getelementptr inbounds %struct.parse, ptr %29, i32 0, i32 0
  %30 = load ptr, ptr %next26, align 8
  %add.ptr27 = getelementptr inbounds i8, ptr %30, i64 1
  %31 = load ptr, ptr %p.addr, align 8
  %end28 = getelementptr inbounds %struct.parse, ptr %31, i32 0, i32 1
  %32 = load ptr, ptr %end28, align 8
  %cmp29 = icmp ult ptr %add.ptr27, %32
  br i1 %cmp29, label %land.lhs.true31, label %cond.false45

land.lhs.true31:                                  ; preds = %land.lhs.true25
  %33 = load ptr, ptr %p.addr, align 8
  %next32 = getelementptr inbounds %struct.parse, ptr %33, i32 0, i32 0
  %34 = load ptr, ptr %next32, align 8
  %35 = load i8, ptr %34, align 1
  %conv33 = sext i8 %35 to i32
  %cmp34 = icmp eq i32 %conv33, 46
  br i1 %cmp34, label %land.lhs.true36, label %cond.false45

land.lhs.true36:                                  ; preds = %land.lhs.true31
  %36 = load ptr, ptr %p.addr, align 8
  %next37 = getelementptr inbounds %struct.parse, ptr %36, i32 0, i32 0
  %37 = load ptr, ptr %next37, align 8
  %add.ptr38 = getelementptr inbounds i8, ptr %37, i64 1
  %38 = load i8, ptr %add.ptr38, align 1
  %conv39 = sext i8 %38 to i32
  %cmp40 = icmp eq i32 %conv39, 93
  br i1 %cmp40, label %cond.true42, label %cond.false45

cond.true42:                                      ; preds = %land.lhs.true36
  %39 = load ptr, ptr %p.addr, align 8
  %next43 = getelementptr inbounds %struct.parse, ptr %39, i32 0, i32 0
  %40 = load ptr, ptr %next43, align 8
  %add.ptr44 = getelementptr inbounds i8, ptr %40, i64 2
  store ptr %add.ptr44, ptr %next43, align 8
  br i1 true, label %lor.end49, label %lor.rhs46

cond.false45:                                     ; preds = %land.lhs.true36, %land.lhs.true31, %land.lhs.true25, %if.end
  br i1 false, label %lor.end49, label %lor.rhs46

lor.rhs46:                                        ; preds = %cond.false45, %cond.true42
  %41 = load ptr, ptr %p.addr, align 8
  %call47 = call i32 @seterr(ptr noundef %41, i32 noundef 3)
  br label %lor.end49

lor.end49:                                        ; preds = %lor.rhs46, %cond.false45, %cond.true42
  %42 = load i8, ptr %value, align 1
  store i8 %42, ptr %retval, align 1
  br label %return

return:                                           ; preds = %lor.end49, %if.then
  %43 = load i8, ptr %retval, align 1
  ret i8 %43
}