; Function Attrs: nofree nounwind memory(read, argmem: readwrite, inaccessiblemem: none) uwtable
define internal fastcc signext i8 @p_b_symbol(ptr noundef nonnull captures(none) %p) unnamed_addr #10 {
entry:
  %0 = load ptr, ptr %p, align 8
  %end = getelementptr inbounds nuw i8, ptr %p, i64 8
  %1 = load ptr, ptr %end, align 8
  %cmp = icmp ult ptr %0, %1
  br i1 %cmp, label %land.lhs.true, label %lor.rhs

lor.rhs:                                          ; preds = %entry
  %error.i = getelementptr inbounds nuw i8, ptr %p, i64 16
  %2 = load i32, ptr %error.i, align 8
  %cmp.i = icmp eq i32 %2, 0
  br i1 %cmp.i, label %if.then.i, label %lor.end.thread

if.then.i:                                        ; preds = %lor.rhs
  store i32 7, ptr %error.i, align 8
  br label %lor.end.thread

lor.end.thread:                                   ; preds = %if.then.i, %lor.rhs
  store ptr @nuls, ptr %end, align 8
  br label %if.then

land.lhs.true:                                    ; preds = %entry
  %add.ptr = getelementptr inbounds nuw i8, ptr %0, i64 1
  %cmp6 = icmp ult ptr %add.ptr, %1
  br i1 %cmp6, label %land.lhs.true7, label %if.then

land.lhs.true7:                                   ; preds = %land.lhs.true
  %3 = load i8, ptr %0, align 1
  %cmp9 = icmp eq i8 %3, 91
  br i1 %cmp9, label %land.lhs.true11, label %if.then

land.lhs.true11:                                  ; preds = %land.lhs.true7
  %4 = load i8, ptr %add.ptr, align 1
  %cmp15 = icmp eq i8 %4, 46
  br i1 %cmp15, label %cond.true, label %if.then

cond.true:                                        ; preds = %land.lhs.true11
  %add.ptr18 = getelementptr inbounds nuw i8, ptr %0, i64 2
  store ptr %add.ptr18, ptr %p, align 8
  %5 = ptrtoint ptr %add.ptr18 to i64
  %cmp36.i = icmp ult ptr %add.ptr18, %1
  br i1 %cmp36.i, label %land.lhs.true.i, label %if.then.i24

land.lhs.true.i:                                  ; preds = %cond.true, %while.body.i
  %add.ptr3537.i = phi ptr [ %add.ptr.i, %while.body.i ], [ %add.ptr18, %cond.true ]
  %add.ptr.i = getelementptr inbounds nuw i8, ptr %add.ptr3537.i, i64 1
  %cmp7.i = icmp ult ptr %add.ptr.i, %1
  br i1 %cmp7.i, label %land.lhs.true8.i, label %while.body.i

land.lhs.true8.i:                                 ; preds = %land.lhs.true.i
  %6 = load i8, ptr %add.ptr3537.i, align 1
  %cmp10.i = icmp eq i8 %6, 46
  br i1 %cmp10.i, label %land.rhs12.i, label %while.body.i

land.rhs12.i:                                     ; preds = %land.lhs.true8.i
  %7 = load i8, ptr %add.ptr.i, align 1
  %cmp16.not.i = icmp eq i8 %7, 93
  br i1 %cmp16.not.i, label %if.end.i, label %while.body.i

while.body.i:                                     ; preds = %land.rhs12.i, %land.lhs.true8.i, %land.lhs.true.i
  store ptr %add.ptr.i, ptr %p, align 8
  %exitcond.not.i = icmp eq ptr %add.ptr.i, %1
  br i1 %exitcond.not.i, label %if.then.i24, label %land.lhs.true.i, !llvm.loop !25

if.then.i24:                                      ; preds = %while.body.i, %cond.true
  %error.i.i = getelementptr inbounds nuw i8, ptr %p, i64 16
  %8 = load i32, ptr %error.i.i, align 8
  %cmp.i.i = icmp eq i32 %8, 0
  br i1 %cmp.i.i, label %if.then.i.i, label %lor.rhs46

if.then.i.i:                                      ; preds = %if.then.i24
  store i32 7, ptr %error.i.i, align 8
  br label %lor.rhs46

if.end.i:                                         ; preds = %land.rhs12.i
  %sub.ptr.lhs.cast.i = ptrtoint ptr %add.ptr3537.i to i64
  %sub.ptr.sub.i = sub i64 %sub.ptr.lhs.cast.i, %5
  br label %for.body.i

for.body.i:                                       ; preds = %for.inc.i, %if.end.i
  %9 = phi ptr [ @.str.27, %if.end.i ], [ %10, %for.inc.i ]
  %cp.038.i = phi ptr [ @cnames, %if.end.i ], [ %incdec.ptr38.i, %for.inc.i ]
  %call28.i = tail call i32 @strncmp(ptr noundef nonnull %9, ptr noundef nonnull %add.ptr18, i64 noundef %sub.ptr.sub.i) #15
  %cmp29.i = icmp eq i32 %call28.i, 0
  br i1 %cmp29.i, label %land.lhs.true31.i, label %for.inc.i

land.lhs.true31.i:                                ; preds = %for.body.i
  %call33.i = tail call i64 @strlen(ptr noundef nonnull dereferenceable(1) %9) #15
  %cmp34.i = icmp eq i64 %call33.i, %sub.ptr.sub.i
  br i1 %cmp34.i, label %if.then36.i, label %for.inc.i

if.then36.i:                                      ; preds = %land.lhs.true31.i
  %code.i = getelementptr inbounds nuw i8, ptr %cp.038.i, i64 8
  br label %p_b_coll_elem.exit

for.inc.i:                                        ; preds = %land.lhs.true31.i, %for.body.i
  %incdec.ptr38.i = getelementptr inbounds nuw i8, ptr %cp.038.i, i64 16
  %10 = load ptr, ptr %incdec.ptr38.i, align 8
  %cmp25.not.i = icmp eq ptr %10, null
  br i1 %cmp25.not.i, label %for.end.i, label %for.body.i, !llvm.loop !26

for.end.i:                                        ; preds = %for.inc.i
  %cmp39.i = icmp eq i64 %sub.ptr.sub.i, 1
  br i1 %cmp39.i, label %p_b_coll_elem.exit, label %if.end42.i

if.end42.i:                                       ; preds = %for.end.i
  %error.i26.i = getelementptr inbounds nuw i8, ptr %p, i64 16
  %11 = load i32, ptr %error.i26.i, align 8
  %cmp.i27.i = icmp eq i32 %11, 0
  br i1 %cmp.i27.i, label %if.then.i29.i, label %lor.rhs46

if.then.i29.i:                                    ; preds = %if.end42.i
  store i32 3, ptr %error.i26.i, align 8
  br label %lor.rhs46

p_b_coll_elem.exit:                               ; preds = %for.end.i, %if.then36.i
  %retval.0.i.in = phi ptr [ %code.i, %if.then36.i ], [ %add.ptr18, %for.end.i ]
  %retval.0.i = load i8, ptr %retval.0.i.in, align 1
  %cmp23 = icmp ult ptr %add.ptr3537.i, %1
  br i1 %cmp23, label %land.lhs.true25, label %lor.rhs46

if.then:                                          ; preds = %lor.end.thread, %land.lhs.true, %land.lhs.true7, %land.lhs.true11
  %12 = phi ptr [ @nuls, %lor.end.thread ], [ %0, %land.lhs.true ], [ %0, %land.lhs.true7 ], [ %0, %land.lhs.true11 ]
  %incdec.ptr = getelementptr inbounds nuw i8, ptr %12, i64 1
  store ptr %incdec.ptr, ptr %p, align 8
  %13 = load i8, ptr %12, align 1
  br label %return

land.lhs.true25:                                  ; preds = %p_b_coll_elem.exit
  %add.ptr27 = getelementptr inbounds nuw i8, ptr %add.ptr3537.i, i64 1
  %cmp29 = icmp ult ptr %add.ptr27, %1
  br i1 %cmp29, label %land.lhs.true31, label %lor.rhs46

land.lhs.true31:                                  ; preds = %land.lhs.true25
  %14 = load i8, ptr %add.ptr3537.i, align 1
  %cmp34 = icmp eq i8 %14, 46
  br i1 %cmp34, label %land.lhs.true36, label %lor.rhs46

land.lhs.true36:                                  ; preds = %land.lhs.true31
  %15 = load i8, ptr %add.ptr27, align 1
  %cmp40 = icmp eq i8 %15, 93
  br i1 %cmp40, label %cond.true42, label %lor.rhs46

cond.true42:                                      ; preds = %land.lhs.true36
  %add.ptr44 = getelementptr inbounds nuw i8, ptr %add.ptr3537.i, i64 2
  store ptr %add.ptr44, ptr %p, align 8
  br label %return

lor.rhs46:                                        ; preds = %if.end42.i, %if.then.i29.i, %if.then.i24, %if.then.i.i, %p_b_coll_elem.exit, %land.lhs.true25, %land.lhs.true31, %land.lhs.true36
  %retval.0.i38 = phi i8 [ %retval.0.i, %p_b_coll_elem.exit ], [ %retval.0.i, %land.lhs.true25 ], [ %retval.0.i, %land.lhs.true31 ], [ %retval.0.i, %land.lhs.true36 ], [ 0, %if.then.i.i ], [ 0, %if.then.i24 ], [ 0, %if.then.i29.i ], [ 0, %if.end42.i ]
  %error.i25 = getelementptr inbounds nuw i8, ptr %p, i64 16
  %16 = load i32, ptr %error.i25, align 8
  %cmp.i26 = icmp eq i32 %16, 0
  br i1 %cmp.i26, label %if.then.i29, label %seterr.exit30

if.then.i29:                                      ; preds = %lor.rhs46
  store i32 3, ptr %error.i25, align 8
  br label %seterr.exit30

seterr.exit30:                                    ; preds = %lor.rhs46, %if.then.i29
  store ptr @nuls, ptr %p, align 8
  store ptr @nuls, ptr %end, align 8
  br label %return

return:                                           ; preds = %seterr.exit30, %cond.true42, %if.then
  %retval.0 = phi i8 [ %13, %if.then ], [ %retval.0.i, %cond.true42 ], [ %retval.0.i38, %seterr.exit30 ]
  ret i8 %retval.0
}